; Function Attrs: uwtable
define void @_ZTv0_n48_N2cv22SimpleBlobDetectorImpl4readERKNS_8FileNodeE(ptr nocapture noundef %0, ptr noundef nonnull align 8 dereferenceable(24) %1) unnamed_addr #9 align 2 {
  %3 = alloca %"struct.cv::SimpleBlobDetector::Params", align 8
  %4 = load ptr, ptr %0, align 8
  %5 = getelementptr inbounds i8, ptr %4, i64 -48
  %6 = load i64, ptr %5, align 8
  %7 = getelementptr inbounds i8, ptr %0, i64 %6
  call void @llvm.lifetime.start.p0(i64 80, ptr nonnull %3)
  call void @_ZN2cv18SimpleBlobDetector6ParamsC1Ev(ptr noundef nonnull align 8 dereferenceable(77) %3)
  call void @_ZN2cv18SimpleBlobDetector6Params4readERKNS_8FileNodeE(ptr noundef nonnull align 8 dereferenceable(77) %3, ptr noundef nonnull align 8 dereferenceable(24) %1)
  call void @_ZN2cv22SimpleBlobDetectorImpl18validateParametersERKNS_18SimpleBlobDetector6ParamsE(ptr noundef nonnull align 8 dereferenceable(77) %3)
  %8 = getelementptr inbounds i8, ptr %7, i64 8
  call void @llvm.memcpy.p0.p0.i64(ptr noundef nonnull align 8 dereferenceable(77) %8, ptr noundef nonnull align 8 dereferenceable(77) %3, i64 77, i1 false)
  call void @llvm.lifetime.end.p0(i64 80, ptr nonnull %3)
  ret void
}